; Function Attrs: mustprogress nofree norecurse nosync nounwind willreturn memory(argmem: readwrite) uwtable
define hidden void @_ZN7ElfFile16add_string_tableEP14ElfStringTable(ptr nocapture noundef nonnull align 8 dereferenceable(144) %0, ptr noundef %1) local_unnamed_addr #8 align 2 {
  %3 = getelementptr inbounds i8, ptr %0, i64 40
  %4 = load ptr, ptr %3, align 8
  %5 = icmp eq ptr %4, null
  br i1 %5, label %7, label %6

6:                                                ; preds = %2
  store ptr %4, ptr %1, align 8
  br label %7

7:                                                ; preds = %2, %6
  store ptr %1, ptr %3, align 8
  ret void
}